target datalayout = "e-m:e-p270:32:32-p271:32:32-p272:64:64-i64:64-i128:128-f80:128-n8:16:32:64-S128"
target triple = "x86_64-unknown-linux-gnu"

%"struct.std::_Rb_tree_header" = type { %"struct.std::_Rb_tree_node_base", i64 }
%"struct.std::_Rb_tree_node_base" = type { i32, ptr, ptr, ptr }
%"class.std::__cxx11::basic_string" = type { %"struct.std::__cxx11::basic_string<char>::_Alloc_hider", i64, %union.anon }
%"struct.std::__cxx11::basic_string<char>::_Alloc_hider" = type { ptr }
%union.anon = type { i64, [8 x i8] }
%"struct.std::_Optional_base.79" = type { %"struct.std::_Optional_payload.81" }
%"struct.std::_Optional_payload.81" = type { %"struct.std::_Optional_payload.base", [7 x i8] }
%"struct.std::_Optional_payload.base" = type { %"struct.std::_Optional_payload_base.base" }
%"struct.std::_Optional_payload_base.base" = type <{ %"union.std::_Optional_payload_base<std::__cxx11::basic_string<char>>::_Storage", i8 }>
%"union.std::_Optional_payload_base<std::__cxx11::basic_string<char>>::_Storage" = type { %"class.std::__cxx11::basic_string" }
%"struct.std::_Vector_base.108" = type { %"struct.std::_Vector_base<grpc_core::(anonymous namespace)::GrpcKeyBuilder::Name, std::allocator<grpc_core::(anonymous namespace)::GrpcKeyBuilder::Name>>::_Vector_impl" }
%"struct.std::_Vector_base<grpc_core::(anonymous namespace)::GrpcKeyBuilder::Name, std::allocator<grpc_core::(anonymous namespace)::GrpcKeyBuilder::Name>>::_Vector_impl" = type { %"struct.std::_Vector_base<grpc_core::(anonymous namespace)::GrpcKeyBuilder::Name, std::allocator<grpc_core::(anonymous namespace)::GrpcKeyBuilder::Name>>::_Vector_impl_data" }
%"struct.std::_Vector_base<grpc_core::(anonymous namespace)::GrpcKeyBuilder::Name, std::allocator<grpc_core::(anonymous namespace)::GrpcKeyBuilder::Name>>::_Vector_impl_data" = type { ptr, ptr, ptr }
%"struct.std::_Vector_base.131" = type { %"struct.std::_Vector_base<grpc_core::(anonymous namespace)::GrpcKeyBuilder::NameMatcher, std::allocator<grpc_core::(anonymous namespace)::GrpcKeyBuilder::NameMatcher>>::_Vector_impl" }
%"struct.std::_Vector_base<grpc_core::(anonymous namespace)::GrpcKeyBuilder::NameMatcher, std::allocator<grpc_core::(anonymous namespace)::GrpcKeyBuilder::NameMatcher>>::_Vector_impl" = type { %"struct.std::_Vector_base<grpc_core::(anonymous namespace)::GrpcKeyBuilder::NameMatcher, std::allocator<grpc_core::(anonymous namespace)::GrpcKeyBuilder::NameMatcher>>::_Vector_impl_data" }
%"struct.std::_Vector_base<grpc_core::(anonymous namespace)::GrpcKeyBuilder::NameMatcher, std::allocator<grpc_core::(anonymous namespace)::GrpcKeyBuilder::NameMatcher>>::_Vector_impl_data" = type { ptr, ptr, ptr }
%"struct.grpc_core::(anonymous namespace)::GrpcKeyBuilder::ExtraKeys" = type { %"class.std::optional.78", %"class.std::optional.78", %"class.std::optional.78" }
%"class.std::optional.78" = type { %"struct.std::_Optional_base.79" }
%"struct.std::less.126" = type { i8 }
%"class.std::map.145" = type { %"class.std::_Rb_tree.146" }
%"class.std::_Rb_tree.146" = type { %"struct.std::_Rb_tree<std::__cxx11::basic_string<char>, std::pair<const std::__cxx11::basic_string<char>, std::__cxx11::basic_string<char>>, std::_Select1st<std::pair<const std::__cxx11::basic_string<char>, std::__cxx11::basic_string<char>>>, std::less<std::__cxx11::basic_string<char>>>::_Rb_tree_impl" }
%"struct.std::_Rb_tree<std::__cxx11::basic_string<char>, std::pair<const std::__cxx11::basic_string<char>, std::__cxx11::basic_string<char>>, std::_Select1st<std::pair<const std::__cxx11::basic_string<char>, std::__cxx11::basic_string<char>>>, std::less<std::__cxx11::basic_string<char>>>::_Rb_tree_impl" = type { %"struct.std::_Rb_tree_key_compare.125", %"struct.std::_Rb_tree_header" }
%"struct.std::_Rb_tree_key_compare.125" = type { %"struct.std::less.126" }
%"struct.grpc_core::(anonymous namespace)::GrpcKeyBuilder" = type { %"class.std::vector.107", %"class.std::vector.130", %"struct.grpc_core::(anonymous namespace)::GrpcKeyBuilder::ExtraKeys", %"class.std::map.145" }
%"class.std::vector.107" = type { %"struct.std::_Vector_base.108" }
%"class.std::vector.130" = type { %"struct.std::_Vector_base.131" }
%"struct.std::_Vector_base.184" = type { %"struct.std::_Vector_base<grpc_core::(anonymous namespace)::GrpcKeyBuilder, std::allocator<grpc_core::(anonymous namespace)::GrpcKeyBuilder>>::_Vector_impl" }
%"struct.std::_Vector_base<grpc_core::(anonymous namespace)::GrpcKeyBuilder, std::allocator<grpc_core::(anonymous namespace)::GrpcKeyBuilder>>::_Vector_impl" = type { %"struct.std::_Vector_base<grpc_core::(anonymous namespace)::GrpcKeyBuilder, std::allocator<grpc_core::(anonymous namespace)::GrpcKeyBuilder>>::_Vector_impl_data" }
%"struct.std::_Vector_base<grpc_core::(anonymous namespace)::GrpcKeyBuilder, std::allocator<grpc_core::(anonymous namespace)::GrpcKeyBuilder>>::_Vector_impl_data" = type { ptr, ptr, ptr }
%"struct.std::_Optional_base.208" = type { %"struct.std::_Optional_payload.210" }
%"struct.std::_Optional_payload.210" = type { %"struct.std::_Optional_payload.base.214", [7 x i8] }
%"struct.std::_Optional_payload.base.214" = type { %"struct.std::_Optional_payload_base.base.213" }
%"struct.std::_Optional_payload_base.base.213" = type <{ %"union.std::_Optional_payload_base<std::vector<grpc_core::(anonymous namespace)::GrpcKeyBuilder>>::_Storage", i8 }>
%"union.std::_Optional_payload_base<std::vector<grpc_core::(anonymous namespace)::GrpcKeyBuilder>>::_Storage" = type { %"class.std::vector.183" }
%"class.std::vector.183" = type { %"struct.std::_Vector_base.184" }
%"struct.std::_Optional_payload_base.212" = type <{ %"union.std::_Optional_payload_base<std::vector<grpc_core::(anonymous namespace)::GrpcKeyBuilder>>::_Storage", i8, [7 x i8] }>

; Function Attrs: mustprogress nounwind uwtable
define internal void @_ZNSt15__new_allocatorIN9grpc_core12_GLOBAL__N_114GrpcKeyBuilderEED2Ev(ptr noundef nonnull align 1 dereferenceable(1) %this) unnamed_addr #5 align 2 {
entry:
  %this.addr = alloca ptr, align 8
  store ptr %this, ptr %this.addr, align 8
  ret void
}

; Function Attrs: mustprogress nounwind uwtable
define internal void @_ZNSt15__new_allocatorIN9grpc_core12_GLOBAL__N_114GrpcKeyBuilderEE10deallocateEPS2_m(ptr noundef nonnull align 1 dereferenceable(1) %this, ptr noundef %__p, i64 noundef %__n) #5 align 2 {
entry:
  %this.addr = alloca ptr, align 8
  %__p.addr = alloca ptr, align 8
  %__n.addr = alloca i64, align 8
  store ptr %this, ptr %this.addr, align 8
  store ptr %__p, ptr %__p.addr, align 8
  store i64 %__n, ptr %__n.addr, align 8
  %0 = load ptr, ptr %__p.addr, align 8
  call void @_ZdlPv(ptr noundef %0) #20
  ret void
}

; Function Attrs: mustprogress nounwind uwtable
define internal void @_ZSt8_DestroyIN9grpc_core12_GLOBAL__N_114GrpcKeyBuilderEEvPT_(ptr noundef %__pointer) #5 {
entry:
  %__pointer.addr = alloca ptr, align 8
  store ptr %__pointer, ptr %__pointer.addr, align 8
  %0 = load ptr, ptr %__pointer.addr, align 8
  call void @_ZN9grpc_core12_GLOBAL__N_114GrpcKeyBuilderD2Ev(ptr noundef nonnull align 8 dereferenceable(216) %0) #3
  ret void
}

; Function Attrs: mustprogress nounwind uwtable
define internal void @_ZNSaIN9grpc_core12_GLOBAL__N_114GrpcKeyBuilderEED2Ev(ptr noundef nonnull align 1 dereferenceable(1) %this) unnamed_addr #5 align 2 {
entry:
  %this.addr = alloca ptr, align 8
  store ptr %this, ptr %this.addr, align 8
  %this1 = load ptr, ptr %this.addr, align 8
  call void @_ZNSt15__new_allocatorIN9grpc_core12_GLOBAL__N_114GrpcKeyBuilderEED2Ev(ptr noundef nonnull align 1 dereferenceable(1) %this1) #3
  ret void
}

; Function Attrs: mustprogress uwtable
define internal void @_ZNSt16allocator_traitsISaIN9grpc_core12_GLOBAL__N_114GrpcKeyBuilderEEE10deallocateERS3_PS2_m(ptr noundef nonnull align 1 dereferenceable(1) %__a, ptr noundef %__p, i64 noundef %__n) #4 align 2 {
entry:
  %__a.addr = alloca ptr, align 8
  %__p.addr = alloca ptr, align 8
  %__n.addr = alloca i64, align 8
  store ptr %__a, ptr %__a.addr, align 8
  store ptr %__p, ptr %__p.addr, align 8
  store i64 %__n, ptr %__n.addr, align 8
  %0 = load ptr, ptr %__a.addr, align 8
  %1 = load ptr, ptr %__p.addr, align 8
  %2 = load i64, ptr %__n.addr, align 8
  call void @_ZNSt15__new_allocatorIN9grpc_core12_GLOBAL__N_114GrpcKeyBuilderEE10deallocateEPS2_m(ptr noundef nonnull align 1 dereferenceable(1) %0, ptr noundef %1, i64 noundef %2)
  ret void
}

; Function Attrs: mustprogress uwtable
define internal void @_ZNSt12_Destroy_auxILb0EE9__destroyIPN9grpc_core12_GLOBAL__N_114GrpcKeyBuilderEEEvT_S6_(ptr noundef %__first, ptr noundef %__last) #4 align 2 {
entry:
  %__first.addr = alloca ptr, align 8
  %__last.addr = alloca ptr, align 8
  store ptr %__first, ptr %__first.addr, align 8
  store ptr %__last, ptr %__last.addr, align 8
  br label %for.cond

for.cond:                                         ; preds = %for.inc, %entry
  %0 = load ptr, ptr %__first.addr, align 8
  %1 = load ptr, ptr %__last.addr, align 8
  %cmp = icmp ne ptr %0, %1
  br i1 %cmp, label %for.body, label %for.end

for.body:                                         ; preds = %for.cond
  %2 = load ptr, ptr %__first.addr, align 8
  call void @_ZSt8_DestroyIN9grpc_core12_GLOBAL__N_114GrpcKeyBuilderEEvPT_(ptr noundef %2)
  br label %for.inc

for.inc:                                          ; preds = %for.body
  %3 = load ptr, ptr %__first.addr, align 8
  %incdec.ptr = getelementptr inbounds %"struct.grpc_core::(anonymous namespace)::GrpcKeyBuilder", ptr %3, i32 1
  store ptr %incdec.ptr, ptr %__first.addr, align 8
  br label %for.cond, !llvm.loop !28

for.end:                                          ; preds = %for.cond
  ret void
}

; Function Attrs: mustprogress nounwind uwtable
define internal void @_ZNSt12_Vector_baseIN9grpc_core12_GLOBAL__N_114GrpcKeyBuilderESaIS2_EE12_Vector_implD2Ev(ptr noundef nonnull align 8 dereferenceable(24) %this) unnamed_addr #5 align 2 {
entry:
  %this.addr = alloca ptr, align 8
  store ptr %this, ptr %this.addr, align 8
  %this1 = load ptr, ptr %this.addr, align 8
  call void @_ZNSaIN9grpc_core12_GLOBAL__N_114GrpcKeyBuilderEED2Ev(ptr noundef nonnull align 1 dereferenceable(1) %this1) #3
  ret void
}

; Function Attrs: mustprogress uwtable
define internal void @_ZNSt12_Vector_baseIN9grpc_core12_GLOBAL__N_114GrpcKeyBuilderESaIS2_EE13_M_deallocateEPS2_m(ptr noundef nonnull align 8 dereferenceable(24) %this, ptr noundef %__p, i64 noundef %__n) #4 align 2 {
entry:
  %this.addr = alloca ptr, align 8
  %__p.addr = alloca ptr, align 8
  %__n.addr = alloca i64, align 8
  store ptr %this, ptr %this.addr, align 8
  store ptr %__p, ptr %__p.addr, align 8
  store i64 %__n, ptr %__n.addr, align 8
  %this1 = load ptr, ptr %this.addr, align 8
  %0 = load ptr, ptr %__p.addr, align 8
  %tobool = icmp ne ptr %0, null
  br i1 %tobool, label %if.then, label %if.end

if.then:                                          ; preds = %entry
  %_M_impl = getelementptr inbounds %"struct.std::_Vector_base.184", ptr %this1, i32 0, i32 0
  %1 = load ptr, ptr %__p.addr, align 8
  %2 = load i64, ptr %__n.addr, align 8
  call void @_ZNSt16allocator_traitsISaIN9grpc_core12_GLOBAL__N_114GrpcKeyBuilderEEE10deallocateERS3_PS2_m(ptr noundef nonnull align 1 dereferenceable(1) %_M_impl, ptr noundef %1, i64 noundef %2)
  br label %if.end

if.end:                                           ; preds = %if.then, %entry
  ret void
}

; Function Attrs: mustprogress uwtable
define internal void @_ZSt8_DestroyIPN9grpc_core12_GLOBAL__N_114GrpcKeyBuilderEEvT_S4_(ptr noundef %__first, ptr noundef %__last) #4 {
entry:
  %__first.addr = alloca ptr, align 8
  %__last.addr = alloca ptr, align 8
  store ptr %__first, ptr %__first.addr, align 8
  store ptr %__last, ptr %__last.addr, align 8
  %0 = load ptr, ptr %__first.addr, align 8
  %1 = load ptr, ptr %__last.addr, align 8
  call void @_ZNSt12_Destroy_auxILb0EE9__destroyIPN9grpc_core12_GLOBAL__N_114GrpcKeyBuilderEEEvT_S6_(ptr noundef %0, ptr noundef %1)
  ret void
}

; Function Attrs: noreturn nounwind uwtable
define linkonce_odr hidden void @__clang_call_terminate(ptr noundef %0) #8 comdat {
  %2 = call ptr @__cxa_begin_catch(ptr %0) #3
  call void @_ZSt9terminatev() #18
  unreachable
}

; Function Attrs: mustprogress nounwind uwtable
define internal void @_ZNSt12_Vector_baseIN9grpc_core12_GLOBAL__N_114GrpcKeyBuilderESaIS2_EED2Ev(ptr noundef nonnull align 8 dereferenceable(24) %this) unnamed_addr #5 align 2 personality ptr @__gxx_personality_v0 {
entry:
  %this.addr = alloca ptr, align 8
  store ptr %this, ptr %this.addr, align 8
  %this1 = load ptr, ptr %this.addr, align 8
  %_M_impl = getelementptr inbounds %"struct.std::_Vector_base.184", ptr %this1, i32 0, i32 0
  %_M_start = getelementptr inbounds %"struct.std::_Vector_base<grpc_core::(anonymous namespace)::GrpcKeyBuilder, std::allocator<grpc_core::(anonymous namespace)::GrpcKeyBuilder>>::_Vector_impl_data", ptr %_M_impl, i32 0, i32 0
  %0 = load ptr, ptr %_M_start, align 8
  %_M_impl2 = getelementptr inbounds %"struct.std::_Vector_base.184", ptr %this1, i32 0, i32 0
  %_M_end_of_storage = getelementptr inbounds %"struct.std::_Vector_base<grpc_core::(anonymous namespace)::GrpcKeyBuilder, std::allocator<grpc_core::(anonymous namespace)::GrpcKeyBuilder>>::_Vector_impl_data", ptr %_M_impl2, i32 0, i32 2
  %1 = load ptr, ptr %_M_end_of_storage, align 8
  %_M_impl3 = getelementptr inbounds %"struct.std::_Vector_base.184", ptr %this1, i32 0, i32 0
  %_M_start4 = getelementptr inbounds %"struct.std::_Vector_base<grpc_core::(anonymous namespace)::GrpcKeyBuilder, std::allocator<grpc_core::(anonymous namespace)::GrpcKeyBuilder>>::_Vector_impl_data", ptr %_M_impl3, i32 0, i32 0
  %2 = load ptr, ptr %_M_start4, align 8
  %sub.ptr.lhs.cast = ptrtoint ptr %1 to i64
  %sub.ptr.rhs.cast = ptrtoint ptr %2 to i64
  %sub.ptr.sub = sub i64 %sub.ptr.lhs.cast, %sub.ptr.rhs.cast
  %sub.ptr.div = sdiv exact i64 %sub.ptr.sub, 216
  invoke void @_ZNSt12_Vector_baseIN9grpc_core12_GLOBAL__N_114GrpcKeyBuilderESaIS2_EE13_M_deallocateEPS2_m(ptr noundef nonnull align 8 dereferenceable(24) %this1, ptr noundef %0, i64 noundef %sub.ptr.div)
          to label %invoke.cont unwind label %terminate.lpad

invoke.cont:                                      ; preds = %entry
  %_M_impl5 = getelementptr inbounds %"struct.std::_Vector_base.184", ptr %this1, i32 0, i32 0
  call void @_ZNSt12_Vector_baseIN9grpc_core12_GLOBAL__N_114GrpcKeyBuilderESaIS2_EE12_Vector_implD2Ev(ptr noundef nonnull align 8 dereferenceable(24) %_M_impl5) #3
  ret void

terminate.lpad:                                   ; preds = %entry
  %3 = landingpad { ptr, i32 }
          catch ptr null
  %4 = extractvalue { ptr, i32 } %3, 0
  call void @__clang_call_terminate(ptr %4) #18
  unreachable
}

; Function Attrs: mustprogress uwtable
define internal void @_ZSt8_DestroyIPN9grpc_core12_GLOBAL__N_114GrpcKeyBuilderES2_EvT_S4_RSaIT0_E(ptr noundef %__first, ptr noundef %__last, ptr noundef nonnull align 1 dereferenceable(1) %0) #4 {
entry:
  %__first.addr = alloca ptr, align 8
  %__last.addr = alloca ptr, align 8
  %.addr = alloca ptr, align 8
  store ptr %__first, ptr %__first.addr, align 8
  store ptr %__last, ptr %__last.addr, align 8
  store ptr %0, ptr %.addr, align 8
  %1 = load ptr, ptr %__first.addr, align 8
  %2 = load ptr, ptr %__last.addr, align 8
  call void @_ZSt8_DestroyIPN9grpc_core12_GLOBAL__N_114GrpcKeyBuilderEEvT_S4_(ptr noundef %1, ptr noundef %2)
  ret void
}

; Function Attrs: mustprogress nounwind uwtable
define internal noundef nonnull align 1 dereferenceable(1) ptr @_ZNSt12_Vector_baseIN9grpc_core12_GLOBAL__N_114GrpcKeyBuilderESaIS2_EE19_M_get_Tp_allocatorEv(ptr noundef nonnull align 8 dereferenceable(24) %this) #5 align 2 {
entry:
  %this.addr = alloca ptr, align 8
  store ptr %this, ptr %this.addr, align 8
  %this1 = load ptr, ptr %this.addr, align 8
  %_M_impl = getelementptr inbounds %"struct.std::_Vector_base.184", ptr %this1, i32 0, i32 0
  ret ptr %_M_impl
}

; Function Attrs: mustprogress nounwind uwtable
define internal void @_ZNSt22_Optional_payload_baseISt6vectorIN9grpc_core12_GLOBAL__N_114GrpcKeyBuilderESaIS3_EEE8_StorageIS5_Lb0EED2Ev(ptr noundef nonnull align 8 dereferenceable(24) %this) unnamed_addr #5 align 2 {
entry:
  %this.addr = alloca ptr, align 8
  store ptr %this, ptr %this.addr, align 8
  ret void
}

; Function Attrs: mustprogress nounwind uwtable
define internal void @_ZNSt6vectorIN9grpc_core12_GLOBAL__N_114GrpcKeyBuilderESaIS2_EED2Ev(ptr noundef nonnull align 8 dereferenceable(24) %this) unnamed_addr #5 align 2 personality ptr @__gxx_personality_v0 {
entry:
  %this.addr = alloca ptr, align 8
  store ptr %this, ptr %this.addr, align 8
  %this1 = load ptr, ptr %this.addr, align 8
  %_M_impl = getelementptr inbounds %"struct.std::_Vector_base.184", ptr %this1, i32 0, i32 0
  %_M_start = getelementptr inbounds %"struct.std::_Vector_base<grpc_core::(anonymous namespace)::GrpcKeyBuilder, std::allocator<grpc_core::(anonymous namespace)::GrpcKeyBuilder>>::_Vector_impl_data", ptr %_M_impl, i32 0, i32 0
  %0 = load ptr, ptr %_M_start, align 8
  %_M_impl2 = getelementptr inbounds %"struct.std::_Vector_base.184", ptr %this1, i32 0, i32 0
  %_M_finish = getelementptr inbounds %"struct.std::_Vector_base<grpc_core::(anonymous namespace)::GrpcKeyBuilder, std::allocator<grpc_core::(anonymous namespace)::GrpcKeyBuilder>>::_Vector_impl_data", ptr %_M_impl2, i32 0, i32 1
  %1 = load ptr, ptr %_M_finish, align 8
  %call = call noundef nonnull align 1 dereferenceable(1) ptr @_ZNSt12_Vector_baseIN9grpc_core12_GLOBAL__N_114GrpcKeyBuilderESaIS2_EE19_M_get_Tp_allocatorEv(ptr noundef nonnull align 8 dereferenceable(24) %this1) #3
  invoke void @_ZSt8_DestroyIPN9grpc_core12_GLOBAL__N_114GrpcKeyBuilderES2_EvT_S4_RSaIT0_E(ptr noundef %0, ptr noundef %1, ptr noundef nonnull align 1 dereferenceable(1) %call)
          to label %invoke.cont unwind label %terminate.lpad

invoke.cont:                                      ; preds = %entry
  call void @_ZNSt12_Vector_baseIN9grpc_core12_GLOBAL__N_114GrpcKeyBuilderESaIS2_EED2Ev(ptr noundef nonnull align 8 dereferenceable(24) %this1) #3
  ret void

terminate.lpad:                                   ; preds = %entry
  %2 = landingpad { ptr, i32 }
          catch ptr null
  %3 = extractvalue { ptr, i32 } %2, 0
  call void @__clang_call_terminate(ptr %3) #18
  unreachable
}

; Function Attrs: mustprogress nounwind uwtable
define internal void @_ZNSt22_Optional_payload_baseISt6vectorIN9grpc_core12_GLOBAL__N_114GrpcKeyBuilderESaIS3_EEED2Ev(ptr noundef nonnull align 8 dereferenceable(25) %this) unnamed_addr #5 align 2 {
entry:
  %this.addr = alloca ptr, align 8
  store ptr %this, ptr %this.addr, align 8
  %this1 = load ptr, ptr %this.addr, align 8
  %_M_payload = getelementptr inbounds %"struct.std::_Optional_payload_base.212", ptr %this1, i32 0, i32 0
  call void @_ZNSt22_Optional_payload_baseISt6vectorIN9grpc_core12_GLOBAL__N_114GrpcKeyBuilderESaIS3_EEE8_StorageIS5_Lb0EED2Ev(ptr noundef nonnull align 8 dereferenceable(24) %_M_payload) #3
  ret void
}

; Function Attrs: mustprogress nounwind uwtable
define internal void @_ZNSt22_Optional_payload_baseISt6vectorIN9grpc_core12_GLOBAL__N_114GrpcKeyBuilderESaIS3_EEE10_M_destroyEv(ptr noundef nonnull align 8 dereferenceable(25) %this) #5 align 2 {
entry:
  %this.addr = alloca ptr, align 8
  store ptr %this, ptr %this.addr, align 8
  %this1 = load ptr, ptr %this.addr, align 8
  %_M_engaged = getelementptr inbounds %"struct.std::_Optional_payload_base.212", ptr %this1, i32 0, i32 1
  store i8 0, ptr %_M_engaged, align 8
  %_M_payload = getelementptr inbounds %"struct.std::_Optional_payload_base.212", ptr %this1, i32 0, i32 0
  call void @_ZNSt6vectorIN9grpc_core12_GLOBAL__N_114GrpcKeyBuilderESaIS2_EED2Ev(ptr noundef nonnull align 8 dereferenceable(24) %_M_payload) #3
  ret void
}

; Function Attrs: mustprogress nounwind uwtable
define internal void @_ZNSt17_Optional_payloadISt6vectorIN9grpc_core12_GLOBAL__N_114GrpcKeyBuilderESaIS3_EELb1ELb0ELb0EED2Ev(ptr noundef nonnull align 8 dereferenceable(25) %this) unnamed_addr #5 align 2 {
entry:
  %this.addr = alloca ptr, align 8
  store ptr %this, ptr %this.addr, align 8
  %this1 = load ptr, ptr %this.addr, align 8
  call void @_ZNSt22_Optional_payload_baseISt6vectorIN9grpc_core12_GLOBAL__N_114GrpcKeyBuilderESaIS3_EEED2Ev(ptr noundef nonnull align 8 dereferenceable(25) %this1) #3
  ret void
}

; Function Attrs: mustprogress nounwind uwtable
define internal void @_ZNSt22_Optional_payload_baseISt6vectorIN9grpc_core12_GLOBAL__N_114GrpcKeyBuilderESaIS3_EEE8_M_resetEv(ptr noundef nonnull align 8 dereferenceable(25) %this) #5 align 2 {
entry:
  %this.addr = alloca ptr, align 8
  store ptr %this, ptr %this.addr, align 8
  %this1 = load ptr, ptr %this.addr, align 8
  %_M_engaged = getelementptr inbounds %"struct.std::_Optional_payload_base.212", ptr %this1, i32 0, i32 1
  %0 = load i8, ptr %_M_engaged, align 8
  %tobool = trunc i8 %0 to i1
  br i1 %tobool, label %if.then, label %if.end

if.then:                                          ; preds = %entry
  call void @_ZNSt22_Optional_payload_baseISt6vectorIN9grpc_core12_GLOBAL__N_114GrpcKeyBuilderESaIS3_EEE10_M_destroyEv(ptr noundef nonnull align 8 dereferenceable(25) %this1) #3
  br label %if.end

if.end:                                           ; preds = %if.then, %entry
  ret void
}

; Function Attrs: mustprogress nounwind uwtable
define internal void @_ZNSt17_Optional_payloadISt6vectorIN9grpc_core12_GLOBAL__N_114GrpcKeyBuilderESaIS3_EELb0ELb0ELb0EED2Ev(ptr noundef nonnull align 8 dereferenceable(25) %this) unnamed_addr #5 align 2 {
entry:
  %this.addr = alloca ptr, align 8
  store ptr %this, ptr %this.addr, align 8
  %this1 = load ptr, ptr %this.addr, align 8
  call void @_ZNSt22_Optional_payload_baseISt6vectorIN9grpc_core12_GLOBAL__N_114GrpcKeyBuilderESaIS3_EEE8_M_resetEv(ptr noundef nonnull align 8 dereferenceable(25) %this1) #3
  call void @_ZNSt17_Optional_payloadISt6vectorIN9grpc_core12_GLOBAL__N_114GrpcKeyBuilderESaIS3_EELb1ELb0ELb0EED2Ev(ptr noundef nonnull align 8 dereferenceable(25) %this1) #3
  ret void
}

; Function Attrs: mustprogress nounwind uwtable
define internal void @_ZNSt14_Optional_baseISt6vectorIN9grpc_core12_GLOBAL__N_114GrpcKeyBuilderESaIS3_EELb0ELb0EED2Ev(ptr noundef nonnull align 8 dereferenceable(32) %this) unnamed_addr #5 align 2 {
entry:
  %this.addr = alloca ptr, align 8
  store ptr %this, ptr %this.addr, align 8
  %this1 = load ptr, ptr %this.addr, align 8
  %_M_payload = getelementptr inbounds %"struct.std::_Optional_base.208", ptr %this1, i32 0, i32 0
  call void @_ZNSt17_Optional_payloadISt6vectorIN9grpc_core12_GLOBAL__N_114GrpcKeyBuilderESaIS3_EELb0ELb0ELb0EED2Ev(ptr noundef nonnull align 8 dereferenceable(25) %_M_payload) #3
  ret void
}

; Function Attrs: mustprogress nounwind uwtable
define internal void @_ZNSt8optionalISt6vectorIN9grpc_core12_GLOBAL__N_114GrpcKeyBuilderESaIS3_EEED2Ev(ptr noundef nonnull align 8 dereferenceable(32) %this) unnamed_addr #5 align 2 {
entry:
  %this.addr = alloca ptr, align 8
  store ptr %this, ptr %this.addr, align 8
  %this1 = load ptr, ptr %this.addr, align 8
  call void @_ZNSt14_Optional_baseISt6vectorIN9grpc_core12_GLOBAL__N_114GrpcKeyBuilderESaIS3_EELb0ELb0EED2Ev(ptr noundef nonnull align 8 dereferenceable(32) %this1) #3
  ret void
}