; Function Attrs: mustprogress nounwind uwtable
define internal fastcc void @_ZNSt8optionalISt6vectorIN9grpc_core12_GLOBAL__N_114GrpcKeyBuilderESaIS3_EEED2Ev(ptr nocapture noundef nonnull align 8 dereferenceable(32) %this) unnamed_addr #11 align 2 personality ptr @__gxx_personality_v0 {
entry:
  %_M_engaged.i.i.i = getelementptr inbounds i8, ptr %this, i64 24
  %0 = load i8, ptr %_M_engaged.i.i.i, align 8
  %1 = and i8 %0, 1
  %tobool.not.i.i.i = icmp eq i8 %1, 0
  br i1 %tobool.not.i.i.i, label %_ZNSt14_Optional_baseISt6vectorIN9grpc_core12_GLOBAL__N_114GrpcKeyBuilderESaIS3_EELb0ELb0EED2Ev.exit, label %if.then.i.i.i

if.then.i.i.i:                                    ; preds = %entry
  store i8 0, ptr %_M_engaged.i.i.i, align 8
  %2 = load ptr, ptr %this, align 8
  %_M_finish.i.i.i.i.i = getelementptr inbounds i8, ptr %this, i64 8
  %3 = load ptr, ptr %_M_finish.i.i.i.i.i, align 8
  %cmp.not3.i.i.i.i.i.i.i.i = icmp eq ptr %2, %3
  br i1 %cmp.not3.i.i.i.i.i.i.i.i, label %invoke.cont.i.i.i.i.i, label %for.body.i.i.i.i.i.i.i.i

for.body.i.i.i.i.i.i.i.i:                         ; preds = %if.then.i.i.i, %for.body.i.i.i.i.i.i.i.i
  %__first.addr.04.i.i.i.i.i.i.i.i = phi ptr [ %incdec.ptr.i.i.i.i.i.i.i.i, %for.body.i.i.i.i.i.i.i.i ], [ %2, %if.then.i.i.i ]
  tail call fastcc void @_ZN9grpc_core12_GLOBAL__N_114GrpcKeyBuilderD2Ev(ptr noundef nonnull align 8 dereferenceable(216) %__first.addr.04.i.i.i.i.i.i.i.i) #31
  %incdec.ptr.i.i.i.i.i.i.i.i = getelementptr inbounds i8, ptr %__first.addr.04.i.i.i.i.i.i.i.i, i64 216
  %cmp.not.i.i.i.i.i.i.i.i = icmp eq ptr %incdec.ptr.i.i.i.i.i.i.i.i, %3
  br i1 %cmp.not.i.i.i.i.i.i.i.i, label %invoke.contthread-pre-split.i.i.i.i.i, label %for.body.i.i.i.i.i.i.i.i, !llvm.loop !38

invoke.contthread-pre-split.i.i.i.i.i:            ; preds = %for.body.i.i.i.i.i.i.i.i
  %this.val.pr.i.i.i.i.i = load ptr, ptr %this, align 8
  br label %invoke.cont.i.i.i.i.i

invoke.cont.i.i.i.i.i:                            ; preds = %invoke.contthread-pre-split.i.i.i.i.i, %if.then.i.i.i
  %this.val.i.i.i.i.i = phi ptr [ %this.val.pr.i.i.i.i.i, %invoke.contthread-pre-split.i.i.i.i.i ], [ %2, %if.then.i.i.i ]
  %tobool.not.i.i.i.i.i.i.i = icmp eq ptr %this.val.i.i.i.i.i, null
  br i1 %tobool.not.i.i.i.i.i.i.i, label %_ZNSt14_Optional_baseISt6vectorIN9grpc_core12_GLOBAL__N_114GrpcKeyBuilderESaIS3_EELb0ELb0EED2Ev.exit, label %if.then.i.i.i.i.i.i.i

if.then.i.i.i.i.i.i.i:                            ; preds = %invoke.cont.i.i.i.i.i
  tail call void @_ZdlPv(ptr noundef nonnull %this.val.i.i.i.i.i) #33
  br label %_ZNSt14_Optional_baseISt6vectorIN9grpc_core12_GLOBAL__N_114GrpcKeyBuilderESaIS3_EELb0ELb0EED2Ev.exit

_ZNSt14_Optional_baseISt6vectorIN9grpc_core12_GLOBAL__N_114GrpcKeyBuilderESaIS3_EELb0ELb0EED2Ev.exit: ; preds = %entry, %invoke.cont.i.i.i.i.i, %if.then.i.i.i.i.i.i.i
  ret void
}